; Function Attrs: mustprogress uwtable
define noundef i32 @uidna_toUnicode_77(ptr noundef %0, i32 noundef %1, ptr noundef %2, i32 noundef %3, i32 noundef %4, ptr noundef %5, ptr noundef %6) local_unnamed_addr #0 {
  %8 = icmp eq ptr %6, null
  br i1 %8, label %26, label %9

9:                                                ; preds = %7
  %10 = load i32, ptr %6, align 4, !tbaa !3
  %11 = icmp slt i32 %10, 1
  br i1 %11, label %12, label %26

12:                                               ; preds = %9
  %13 = icmp eq ptr %0, null
  %14 = icmp slt i32 %1, -1
  %or.cond = or i1 %13, %14
  %15 = icmp slt i32 %3, 0
  %or.cond3 = or i1 %or.cond, %15
  br i1 %or.cond3, label %19, label %16

16:                                               ; preds = %12
  %17 = icmp eq ptr %2, null
  %18 = icmp ne i32 %3, 0
  %or.cond5 = and i1 %17, %18
  br i1 %or.cond5, label %19, label %20

19:                                               ; preds = %16, %12
  store i32 1, ptr %6, align 4, !tbaa !3
  br label %26

20:                                               ; preds = %16
  %21 = tail call ptr @usprep_openByType_77(i32 noundef 0, ptr noundef nonnull %6)
  %22 = load i32, ptr %6, align 4, !tbaa !3
  %23 = icmp slt i32 %22, 1
  br i1 %23, label %24, label %26

24:                                               ; preds = %20
  %25 = tail call fastcc noundef i32 @_ZL19_internal_toUnicodePKDsiPDsiiP18UStringPrepProfileP11UParseErrorP10UErrorCode(ptr noundef nonnull %0, i32 noundef %1, ptr noundef %2, i32 noundef %3, i32 noundef %4, ptr noundef %21, ptr noundef %5, ptr noundef %6)
  tail call void @usprep_close_77(ptr noundef %21)
  br label %26

26:                                               ; preds = %24, %20, %7, %9, %19
  %.0 = phi i32 [ 0, %19 ], [ 0, %9 ], [ 0, %7 ], [ %25, %24 ], [ -1, %20 ]
  ret i32 %.0
}